; Function Attrs: nounwind uwtable
define zeroext range(i8 0, 2) i8 @l_Array_anyMUnsafe_any___at___private_Lean_Elab_Tactic_Try_0__Lean_Elab_Tactic_Try_mergeAll_x3f___spec__2(ptr noundef %0, ptr noundef readonly captures(none) %1, i64 noundef %2, i64 noundef %3) local_unnamed_addr #0 {
  %.not47 = icmp eq i64 %2, %3
  br i1 %.not47, label %.._crit_edge_crit_edge, label %.lr.ph

.._crit_edge_crit_edge:                           ; preds = %4
  %.pre = ptrtoint ptr %0 to i64
  %.pre49 = and i64 %.pre, 1
  br label %._crit_edge

.lr.ph:                                           ; preds = %4
  %5 = getelementptr inbounds nuw i8, ptr %1, i64 24
  %6 = ptrtoint ptr %0 to i64
  %7 = and i64 %6, 1
  %.not44 = icmp eq i64 %7, 0
  br label %10

8:                                                ; preds = %lean_dec.exit27
  %9 = add i64 %.02148, 1
  %.not = icmp eq i64 %9, %3
  br i1 %.not, label %._crit_edge, label %10

10:                                               ; preds = %.lr.ph, %8
  %.02148 = phi i64 [ %2, %.lr.ph ], [ %9, %8 ]
  %11 = getelementptr inbounds nuw [0 x ptr], ptr %5, i64 0, i64 %.02148
  %12 = load ptr, ptr %11, align 8, !tbaa !4
  %13 = ptrtoint ptr %12 to i64
  %14 = and i64 %13, 1
  %.not.i35 = icmp eq i64 %14, 0
  br i1 %.not.i35, label %15, label %lean_array_uget.exit

15:                                               ; preds = %10
  %.val.i.i = load i32, ptr %12, align 4, !tbaa !8
  %16 = icmp sgt i32 %.val.i.i, 0
  br i1 %16, label %17, label %19, !prof !11

17:                                               ; preds = %15
  %18 = add nuw i32 %.val.i.i, 1
  store i32 %18, ptr %12, align 4, !tbaa !8
  br label %lean_array_uget.exit

19:                                               ; preds = %15
  %.not.i.i = icmp eq i32 %.val.i.i, 0
  br i1 %.not.i.i, label %lean_array_uget.exit, label %20

20:                                               ; preds = %19
  tail call void @lean_inc_ref_cold(ptr noundef nonnull %12) #5
  br label %lean_array_uget.exit

lean_array_uget.exit:                             ; preds = %10, %17, %19, %20
  %21 = tail call ptr @l_Lean_Syntax_getKind(ptr noundef %12) #5
  br i1 %.not44, label %22, label %lean_inc.exit

22:                                               ; preds = %lean_array_uget.exit
  %.val.i = load i32, ptr %0, align 4, !tbaa !8
  %23 = icmp sgt i32 %.val.i, 0
  br i1 %23, label %24, label %26, !prof !11

24:                                               ; preds = %22
  %25 = add nuw i32 %.val.i, 1
  store i32 %25, ptr %0, align 4, !tbaa !8
  br label %lean_inc.exit

26:                                               ; preds = %22
  %.not.i36 = icmp eq i32 %.val.i, 0
  br i1 %.not.i36, label %lean_inc.exit, label %27

27:                                               ; preds = %26
  tail call void @lean_inc_ref_cold(ptr noundef nonnull %0) #5
  br label %lean_inc.exit

lean_inc.exit:                                    ; preds = %27, %26, %24, %lean_array_uget.exit
  %28 = tail call ptr @l_Lean_Syntax_getKind(ptr noundef %0) #5
  %29 = tail call zeroext i8 @lean_name_eq(ptr noundef %21, ptr noundef %28) #5
  %30 = ptrtoint ptr %28 to i64
  %31 = and i64 %30, 1
  %.not45 = icmp eq i64 %31, 0
  br i1 %.not45, label %32, label %lean_dec.exit28

32:                                               ; preds = %lean_inc.exit
  %33 = load i32, ptr %28, align 4, !tbaa !8
  %34 = icmp sgt i32 %33, 1
  br i1 %34, label %35, label %37, !prof !11

35:                                               ; preds = %32
  %36 = add nsw i32 %33, -1
  store i32 %36, ptr %28, align 4, !tbaa !8
  br label %lean_dec.exit28

37:                                               ; preds = %32
  %.not.i = icmp eq i32 %33, 0
  br i1 %.not.i, label %lean_dec.exit28, label %38

38:                                               ; preds = %37
  tail call void @lean_dec_ref_cold(ptr noundef nonnull %28) #5
  br label %lean_dec.exit28

lean_dec.exit28:                                  ; preds = %38, %37, %35, %lean_inc.exit
  %39 = ptrtoint ptr %21 to i64
  %40 = and i64 %39, 1
  %.not46 = icmp eq i64 %40, 0
  br i1 %.not46, label %41, label %lean_dec.exit27

41:                                               ; preds = %lean_dec.exit28
  %42 = load i32, ptr %21, align 4, !tbaa !8
  %43 = icmp sgt i32 %42, 1
  br i1 %43, label %44, label %46, !prof !11

44:                                               ; preds = %41
  %45 = add nsw i32 %42, -1
  store i32 %45, ptr %21, align 4, !tbaa !8
  br label %lean_dec.exit27

46:                                               ; preds = %41
  %.not.i29 = icmp eq i32 %42, 0
  br i1 %.not.i29, label %lean_dec.exit27, label %47

47:                                               ; preds = %46
  tail call void @lean_dec_ref_cold(ptr noundef nonnull %21) #5
  br label %lean_dec.exit27

lean_dec.exit27:                                  ; preds = %47, %46, %44, %lean_dec.exit28
  %48 = icmp eq i8 %29, 0
  br i1 %48, label %49, label %8

49:                                               ; preds = %lean_dec.exit27
  br i1 %.not44, label %50, label %64

50:                                               ; preds = %49
  %51 = load i32, ptr %0, align 4, !tbaa !8
  %52 = icmp sgt i32 %51, 1
  br i1 %52, label %53, label %55, !prof !11

53:                                               ; preds = %50
  %54 = add nsw i32 %51, -1
  store i32 %54, ptr %0, align 4, !tbaa !8
  br label %64

55:                                               ; preds = %50
  %.not.i31 = icmp eq i32 %51, 0
  br i1 %.not.i31, label %64, label %56

56:                                               ; preds = %55
  tail call void @lean_dec_ref_cold(ptr noundef nonnull %0) #5
  br label %64

._crit_edge:                                      ; preds = %8, %.._crit_edge_crit_edge
  %.pre-phi50 = phi i64 [ %.pre49, %.._crit_edge_crit_edge ], [ %7, %8 ]
  %.not43 = icmp eq i64 %.pre-phi50, 0
  br i1 %.not43, label %57, label %64

57:                                               ; preds = %._crit_edge
  %58 = load i32, ptr %0, align 4, !tbaa !8
  %59 = icmp sgt i32 %58, 1
  br i1 %59, label %60, label %62, !prof !11

60:                                               ; preds = %57
  %61 = add nsw i32 %58, -1
  store i32 %61, ptr %0, align 4, !tbaa !8
  br label %64

62:                                               ; preds = %57
  %.not.i33 = icmp eq i32 %58, 0
  br i1 %.not.i33, label %64, label %63

63:                                               ; preds = %62
  tail call void @lean_dec_ref_cold(ptr noundef nonnull %0) #5
  br label %64

64:                                               ; preds = %56, %55, %53, %49, %63, %62, %60, %._crit_edge
  %.2.ph = phi i8 [ 0, %._crit_edge ], [ 0, %60 ], [ 0, %62 ], [ 0, %63 ], [ 1, %49 ], [ 1, %53 ], [ 1, %55 ], [ 1, %56 ]
  ret i8 %.2.ph
}